target datalayout = "e-m:e-p270:32:32-p271:32:32-p272:64:64-i64:64-i128:128-f80:128-n8:16:32:64-S128"
target triple = "x86_64-pc-linux-gnu"

%struct.EVP_SM4_KEY = type { %union.anon, ptr, %union.anon.0 }
%union.anon = type { double, [120 x i8] }
%union.anon.0 = type { ptr }
%struct.evp_cipher_ctx_st = type { ptr, ptr, i32, i32, [16 x i8], [16 x i8], [32 x i8], i32, ptr, i32, i32, i64, ptr, i32, i32, [32 x i8], i64, ptr, ptr }

; Function Attrs: nounwind uwtable
define internal i32 @sm4_cfb_cipher(ptr noundef %0, ptr noundef %1, ptr noundef %2, i64 noundef %3) #0 {
  %5 = alloca ptr, align 8
  %6 = alloca ptr, align 8
  %7 = alloca ptr, align 8
  %8 = alloca i64, align 8
  %9 = alloca ptr, align 8
  %10 = alloca i32, align 4
  store ptr %0, ptr %5, align 8, !tbaa !3
  store ptr %1, ptr %6, align 8, !tbaa !8
  store ptr %2, ptr %7, align 8, !tbaa !8
  store i64 %3, ptr %8, align 8, !tbaa !15
  call void @llvm.lifetime.start.p0(i64 8, ptr %9) #3
  %11 = load ptr, ptr %5, align 8, !tbaa !3
  %12 = call ptr @EVP_CIPHER_CTX_get_cipher_data(ptr noundef %11)
  store ptr %12, ptr %9, align 8, !tbaa !12
  call void @llvm.lifetime.start.p0(i64 4, ptr %10) #3
  %13 = load ptr, ptr %5, align 8, !tbaa !3
  %14 = call i32 @EVP_CIPHER_CTX_get_num(ptr noundef %13)
  store i32 %14, ptr %10, align 4, !tbaa !10
  %15 = load ptr, ptr %7, align 8, !tbaa !8
  %16 = load ptr, ptr %6, align 8, !tbaa !8
  %17 = load i64, ptr %8, align 8, !tbaa !15
  %18 = load ptr, ptr %9, align 8, !tbaa !12
  %19 = getelementptr inbounds nuw %struct.EVP_SM4_KEY, ptr %18, i32 0, i32 0
  %20 = load ptr, ptr %5, align 8, !tbaa !3
  %21 = getelementptr inbounds nuw %struct.evp_cipher_ctx_st, ptr %20, i32 0, i32 5
  %22 = getelementptr inbounds [16 x i8], ptr %21, i64 0, i64 0
  %23 = load ptr, ptr %5, align 8, !tbaa !3
  %24 = call i32 @EVP_CIPHER_CTX_is_encrypting(ptr noundef %23)
  %25 = load ptr, ptr %9, align 8, !tbaa !12
  %26 = getelementptr inbounds nuw %struct.EVP_SM4_KEY, ptr %25, i32 0, i32 1
  %27 = load ptr, ptr %26, align 8, !tbaa !13
  call void @CRYPTO_cfb128_encrypt(ptr noundef %15, ptr noundef %16, i64 noundef %17, ptr noundef %19, ptr noundef %22, ptr noundef %10, i32 noundef %24, ptr noundef %27)
  %28 = load ptr, ptr %5, align 8, !tbaa !3
  %29 = load i32, ptr %10, align 4, !tbaa !10
  %30 = call i32 @EVP_CIPHER_CTX_set_num(ptr noundef %28, i32 noundef %29)
  call void @llvm.lifetime.end.p0(i64 4, ptr %10) #3
  call void @llvm.lifetime.end.p0(i64 8, ptr %9) #3
  ret i32 1
}